(dp1
S'files'
p2
(dp3
S'drinker_tests'
p4
(dp5
S'index'
p6
(dp7
S'html_filename'
p8
S'drinker_tests.html'
p9
sS'name'
p10
S'drinker/tests'
p11
sS'nums'
p12
ccopy_reg
_reconstructor
p13
(ccoverage.results
Numbers
p14
c__builtin__
object
p15
NtRp16
(dp17
S'n_files'
p18
I1
sS'n_branches'
p19
I0
sS'n_statements'
p20
I490
sS'n_excluded'
p21
I0
sS'n_partial_branches'
p22
I0
sS'n_missing'
p23
I167
sS'n_missing_branches'
p24
I0
sbssS'hash'
p25
S'q\x19[\xe7\x1f\xcd\xef\x1962K<\x03\x08x\xe8'
p26
ssS'filter___init__'
p27
(dp28
g6
(dp29
S'html_filename'
p30
S'filter___init__.html'
p31
sS'name'
p32
S'filter/__init__'
p33
sS'nums'
p34
g13
(g14
g15
NtRp35
(dp36
g18
I1
sg19
I0
sg20
I0
sg21
I0
sg22
I0
sg23
I0
sg24
I0
sbssg25
S'\xca\xf5\x9f\x7f\x88\xdfa\x831|T\x1d\xbc}\xa5v'
p37
ssS'signups___init__'
p38
(dp39
g6
(dp40
g30
S'signups___init__.html'
p41
sg32
S'signups/__init__'
p42
sg34
g13
(g14
g15
NtRp43
(dp44
g18
I1
sg19
I0
sg20
I0
sg21
I0
sg22
I0
sg23
I0
sg24
I0
sbssg25
S'\xca\xf5\x9f\x7f\x88\xdfa\x831|T\x1d\xbc}\xa5v'
p45
ssS'mvp_landing___init__'
p46
(dp47
g6
(dp48
g30
S'mvp_landing___init__.html'
p49
sg32
S'mvp_landing/__init__'
p50
sg34
g13
(g14
g15
NtRp51
(dp52
g18
I1
sg19
I0
sg20
I0
sg21
I0
sg22
I0
sg23
I0
sg24
I0
sbssg25
S'\xca\xf5\x9f\x7f\x88\xdfa\x831|T\x1d\xbc}\xa5v'
p53
ssS'dragdrop_models'
p54
(dp55
g6
(dp56
g30
S'dragdrop_models.html'
p57
sg32
S'dragdrop/models'
p58
sg34
g13
(g14
g15
NtRp59
(dp60
g18
I1
sg19
I0
sg20
I14
sg21
I0
sg22
I0
sg23
I3
sg24
I0
sbssg25
S'\xc6\x15\xd7\x1a\x03\x07f\x8c%\x1aA\xef\xa8\t\x80"'
p61
ssS'filter_models'
p62
(dp63
g6
(dp64
g30
S'filter_models.html'
p65
sg32
S'filter/models'
p66
sg34
g13
(g14
g15
NtRp67
(dp68
g18
I1
sg19
I0
sg20
I0
sg21
I0
sg22
I0
sg23
I0
sg24
I0
sbssg25
S'\x9b\xf9\xff\n\x90\xb7p\x8a\xdc\x9fO\xc5\xeb\xe4n\xaa'
p69
ssS'manage'
p70
(dp71
g6
(dp72
g30
S'manage.html'
p73
sg32
g70
sg34
g13
(g14
g15
NtRp74
(dp75
g18
I1
sg19
I0
sg20
I6
sg21
I0
sg22
I0
sg23
I0
sg24
I0
sbssg25
S'\xbc/\x08.\xd4\xb7Fn&\xfe\xb5\x15\x9c+l\xba'
p76
ssS'filter_tests'
p77
(dp78
g6
(dp79
g30
S'filter_tests.html'
p80
sg32
S'filter/tests'
p81
sg34
g13
(g14
g15
NtRp82
(dp83
g18
I1
sg19
I0
sg20
I1
sg21
I0
sg22
I0
sg23
I0
sg24
I0
sbssg25
S'\x18\xa2\xf7\x81\x94\xb4%\xa4\xfaT\xb8\x84>\xb2\xf3b'
p84
ssS'varnishapp___init__'
p85
(dp86
g6
(dp87
g30
S'varnishapp___init__.html'
p88
sg32
S'varnishapp/__init__'
p89
sg34
g13
(g14
g15
NtRp90
(dp91
g18
I1
sg19
I0
sg20
I0
sg21
I0
sg22
I0
sg23
I0
sg24
I0
sbssg25
S'\xca\xf5\x9f\x7f\x88\xdfa\x831|T\x1d\xbc}\xa5v'
p92
ssS'dragdrop_tests'
p93
(dp94
g6
(dp95
g30
S'dragdrop_tests.html'
p96
sg32
S'dragdrop/tests'
p97
sg34
g13
(g14
g15
NtRp98
(dp99
g18
I1
sg19
I0
sg20
I45
sg21
I0
sg22
I0
sg23
I15
sg24
I0
sbssg25
S'\x88\x86o\xfb\x0e\xd4p\xb3#\xe4\xd5_\xd4a\xe5\xa4'
p100
ssS'varnishapp_management___init__'
p101
(dp102
g6
(dp103
g30
S'varnishapp_management___init__.html'
p104
sg32
S'varnishapp/management/__init__'
p105
sg34
g13
(g14
g15
NtRp106
(dp107
g18
I1
sg19
I0
sg20
I0
sg21
I0
sg22
I0
sg23
I0
sg24
I0
sbssg25
S'\xca\xf5\x9f\x7f\x88\xdfa\x831|T\x1d\xbc}\xa5v'
p108
ssS'mvp_landing_settings'
p109
(dp110
g6
(dp111
g8
S'mvp_landing_settings.html'
p112
sg10
S'mvp_landing/settings'
p113
sg12
g13
(g14
g15
NtRp114
(dp115
g18
I1
sg19
I0
sg20
I31
sg21
I0
sg22
I0
sg23
I0
sg24
I0
sbssg25
S'6\x93\xf0\xf2\xb24\x91T}D\xb6k\xf3\x9e\x04\xe6'
p116
ssS'dragdrop_files'
p117
(dp118
g6
(dp119
g30
S'dragdrop_files.html'
p120
sg32
S'dragdrop/files'
p121
sg34
g13
(g14
g15
NtRp122
(dp123
g18
I1
sg19
I0
sg20
I18
sg21
I0
sg22
I0
sg23
I8
sg24
I0
sbssg25
S'>C\xc7\xeaB.\xe4\xfe\x925k\xc1\x19\x05\xc4j'
p124
ssS'signups_tests'
p125
(dp126
g6
(dp127
g30
S'signups_tests.html'
p128
sg32
S'signups/tests'
p129
sg34
g13
(g14
g15
NtRp130
(dp131
g18
I1
sg19
I0
sg20
I1
sg21
I0
sg22
I0
sg23
I0
sg24
I0
sbssg25
S'\x18\xa2\xf7\x81\x94\xb4%\xa4\xfaT\xb8\x84>\xb2\xf3b'
p132
ssS'varnishapp_management_commands___init__'
p133
(dp134
S'index'
p135
(dp136
g8
S'varnishapp_management_commands___init__.html'
p137
sg10
S'varnishapp/management/commands/__init__'
p138
sg12
g13
(g14
g15
NtRp139
(dp140
g18
I1
sg19
I0
sg20
I0
sg21
I0
sg22
I0
sg23
I0
sg24
I0
sbssS'hash'
p141
S'\xca\xf5\x9f\x7f\x88\xdfa\x831|T\x1d\xbc}\xa5v'
p142
ssS'drinker___init__'
p143
(dp144
g6
(dp145
g30
S'drinker___init__.html'
p146
sg32
S'drinker/__init__'
p147
sg34
g13
(g14
g15
NtRp148
(dp149
g18
I1
sg19
I0
sg20
I0
sg21
I0
sg22
I0
sg23
I0
sg24
I0
sbssg25
S'\xca\xf5\x9f\x7f\x88\xdfa\x831|T\x1d\xbc}\xa5v'
p150
ssS'drinker_models'
p151
(dp152
g6
(dp153
g30
S'drinker_models.html'
p154
sg32
S'drinker/models'
p155
sg34
g13
(g14
g15
NtRp156
(dp157
g18
I1
sg19
I0
sg20
I13
sg21
I0
sg22
I0
sg23
I3
sg24
I0
sbssg25
S'8g\xc9u\xba3:\x19\xc6\xcd`o\xc9\xa2\xa5\x85'
p158
ssS'dragdrop___init__'
p159
(dp160
g6
(dp161
g30
S'dragdrop___init__.html'
p162
sg32
S'dragdrop/__init__'
p163
sg34
g13
(g14
g15
NtRp164
(dp165
g18
I1
sg19
I0
sg20
I0
sg21
I0
sg22
I0
sg23
I0
sg24
I0
sbssg25
S'\xca\xf5\x9f\x7f\x88\xdfa\x831|T\x1d\xbc}\xa5v'
p166
sssS'version'
p167
S'3.7.1'
p168
sS'settings'
p169
S'\x98\xa8x\xfe"r\xb5K\x98\xb1N\\\x99\x9e\xf3\xe5'
p170
sS'format'
p171
I1
s.