(dp1
S'files'
p2
(dp3
S'drinker_tests'
p4
(dp5
S'index'
p6
(dp7
S'html_filename'
p8
S'drinker_tests.html'
p9
sS'name'
p10
S'drinker/tests'
p11
sS'nums'
p12
ccopy_reg
_reconstructor
p13
(ccoverage.results
Numbers
p14
c__builtin__
object
p15
NtRp16
(dp17
S'n_files'
p18
I1
sS'n_branches'
p19
I0
sS'n_statements'
p20
I300
sS'n_excluded'
p21
I0
sS'n_partial_branches'
p22
I0
sS'n_missing'
p23
I27
sS'n_missing_branches'
p24
I0
sbssS'hash'
p25
S'\xb7\x04\xf1\xc8\xf4mN\xce.x\xa5\x89{\xb3\x11>'
p26
ssS'signups___init__'
p27
(dp28
g6
(dp29
S'html_filename'
p30
S'signups___init__.html'
p31
sS'name'
p32
S'signups/__init__'
p33
sS'nums'
p34
g13
(g14
g15
NtRp35
(dp36
g18
I1
sg19
I0
sg20
I0
sg21
I0
sg22
I0
sg23
I0
sg24
I0
sbssg25
S'\xca\xf5\x9f\x7f\x88\xdfa\x831|T\x1d\xbc}\xa5v'
p37
ssS'mvp_landing___init__'
p38
(dp39
g6
(dp40
g30
S'mvp_landing___init__.html'
p41
sg32
S'mvp_landing/__init__'
p42
sg34
g13
(g14
g15
NtRp43
(dp44
g18
I1
sg19
I0
sg20
I0
sg21
I0
sg22
I0
sg23
I0
sg24
I0
sbssg25
S'\xca\xf5\x9f\x7f\x88\xdfa\x831|T\x1d\xbc}\xa5v'
p45
ssS'dragdrop_models'
p46
(dp47
g6
(dp48
S'html_filename'
p49
S'dragdrop_models.html'
p50
sS'name'
p51
S'dragdrop/models'
p52
sS'nums'
p53
g13
(g14
g15
NtRp54
(dp55
g18
I1
sg19
I0
sg20
I13
sg21
I0
sg22
I0
sg23
I3
sg24
I0
sbssg25
S'\x96\x07\xdb\x8a/\xae\x9bo\xc9G\x1d\xf8\x0c\xee\xb0\xd2'
p56
ssS'filter_models'
p57
(dp58
g6
(dp59
g30
S'filter_models.html'
p60
sg32
S'filter/models'
p61
sg34
g13
(g14
g15
NtRp62
(dp63
g18
I1
sg19
I0
sg20
I0
sg21
I0
sg22
I0
sg23
I0
sg24
I0
sbssg25
S'\x9b\xf9\xff\n\x90\xb7p\x8a\xdc\x9fO\xc5\xeb\xe4n\xaa'
p64
ssS'manage'
p65
(dp66
g6
(dp67
g30
S'manage.html'
p68
sg32
g65
sg34
g13
(g14
g15
NtRp69
(dp70
g18
I1
sg19
I0
sg20
I6
sg21
I0
sg22
I0
sg23
I0
sg24
I0
sbssg25
S'\xbc/\x08.\xd4\xb7Fn&\xfe\xb5\x15\x9c+l\xba'
p71
ssS'filter_tests'
p72
(dp73
g6
(dp74
g30
S'filter_tests.html'
p75
sg32
S'filter/tests'
p76
sg34
g13
(g14
g15
NtRp77
(dp78
g18
I1
sg19
I0
sg20
I1
sg21
I0
sg22
I0
sg23
I0
sg24
I0
sbssg25
S'\x18\xa2\xf7\x81\x94\xb4%\xa4\xfaT\xb8\x84>\xb2\xf3b'
p79
ssS'filter___init__'
p80
(dp81
g6
(dp82
g30
S'filter___init__.html'
p83
sg32
S'filter/__init__'
p84
sg34
g13
(g14
g15
NtRp85
(dp86
g18
I1
sg19
I0
sg20
I0
sg21
I0
sg22
I0
sg23
I0
sg24
I0
sbssg25
S'\xca\xf5\x9f\x7f\x88\xdfa\x831|T\x1d\xbc}\xa5v'
p87
ssS'varnishapp___init__'
p88
(dp89
g6
(dp90
g30
S'varnishapp___init__.html'
p91
sg32
S'varnishapp/__init__'
p92
sg34
g13
(g14
g15
NtRp93
(dp94
g18
I1
sg19
I0
sg20
I0
sg21
I0
sg22
I0
sg23
I0
sg24
I0
sbssg25
S'\xca\xf5\x9f\x7f\x88\xdfa\x831|T\x1d\xbc}\xa5v'
p95
ssS'dragdrop_tests'
p96
(dp97
g6
(dp98
S'html_filename'
p99
S'dragdrop_tests.html'
p100
sS'name'
p101
S'dragdrop/tests'
p102
sS'nums'
p103
g13
(g14
g15
NtRp104
(dp105
g18
I1
sg19
I0
sg20
I26
sg21
I0
sg22
I0
sg23
I0
sg24
I0
sbssg25
S'\xa1 \xda\xed\xe8j\xb9\x91N\x17\x86r\xb2\x0b4\x1e'
p106
ssS'varnishapp_management___init__'
p107
(dp108
g6
(dp109
g30
S'varnishapp_management___init__.html'
p110
sg32
S'varnishapp/management/__init__'
p111
sg34
g13
(g14
g15
NtRp112
(dp113
g18
I1
sg19
I0
sg20
I0
sg21
I0
sg22
I0
sg23
I0
sg24
I0
sbssg25
S'\xca\xf5\x9f\x7f\x88\xdfa\x831|T\x1d\xbc}\xa5v'
p114
ssS'mvp_landing_settings'
p115
(dp116
g6
(dp117
S'html_filename'
p118
S'mvp_landing_settings.html'
p119
sS'name'
p120
S'mvp_landing/settings'
p121
sS'nums'
p122
g13
(g14
g15
NtRp123
(dp124
g18
I1
sg19
I0
sg20
I31
sg21
I0
sg22
I0
sg23
I0
sg24
I0
sbssg25
S'6\x93\xf0\xf2\xb24\x91T}D\xb6k\xf3\x9e\x04\xe6'
p125
ssS'dragdrop_files'
p126
(dp127
g6
(dp128
g30
S'dragdrop_files.html'
p129
sg32
S'dragdrop/files'
p130
sg34
g13
(g14
g15
NtRp131
(dp132
g18
I1
sg19
I0
sg20
I18
sg21
I0
sg22
I0
sg23
I8
sg24
I0
sbssg25
S'>C\xc7\xeaB.\xe4\xfe\x925k\xc1\x19\x05\xc4j'
p133
ssS'signups_tests'
p134
(dp135
g6
(dp136
S'html_filename'
p137
S'signups_tests.html'
p138
sS'name'
p139
S'signups/tests'
p140
sS'nums'
p141
g13
(g14
g15
NtRp142
(dp143
g18
I1
sg19
I0
sg20
I0
sg21
I0
sg22
I0
sg23
I0
sg24
I0
sbssg25
S'a^sm\x00Y\xaa\x8ff\rY\xc4%IY\xd9'
p144
ssS'varnishapp_management_commands___init__'
p145
(dp146
S'index'
p147
(dp148
g118
S'varnishapp_management_commands___init__.html'
p149
sg120
S'varnishapp/management/commands/__init__'
p150
sg122
g13
(g14
g15
NtRp151
(dp152
g18
I1
sg19
I0
sg20
I0
sg21
I0
sg22
I0
sg23
I0
sg24
I0
sbssS'hash'
p153
S'\xca\xf5\x9f\x7f\x88\xdfa\x831|T\x1d\xbc}\xa5v'
p154
ssS'drinker___init__'
p155
(dp156
g6
(dp157
g30
S'drinker___init__.html'
p158
sg32
S'drinker/__init__'
p159
sg34
g13
(g14
g15
NtRp160
(dp161
g18
I1
sg19
I0
sg20
I0
sg21
I0
sg22
I0
sg23
I0
sg24
I0
sbssg25
S'\xca\xf5\x9f\x7f\x88\xdfa\x831|T\x1d\xbc}\xa5v'
p162
ssS'drinker_models'
p163
(dp164
g6
(dp165
g49
S'drinker_models.html'
p166
sg51
S'drinker/models'
p167
sg53
g13
(g14
g15
NtRp168
(dp169
g18
I1
sg19
I0
sg20
I8
sg21
I0
sg22
I0
sg23
I1
sg24
I0
sbssg25
S'z.\xeerQ\xbe\x0e\xd0\x96\xe2oh\x7f*\xb7\xb5'
p170
ssS'dragdrop___init__'
p171
(dp172
g6
(dp173
g30
S'dragdrop___init__.html'
p174
sg32
S'dragdrop/__init__'
p175
sg34
g13
(g14
g15
NtRp176
(dp177
g18
I1
sg19
I0
sg20
I0
sg21
I0
sg22
I0
sg23
I0
sg24
I0
sbssg25
S'\xca\xf5\x9f\x7f\x88\xdfa\x831|T\x1d\xbc}\xa5v'
p178
sssS'version'
p179
S'3.7.1'
p180
sS'settings'
p181
S'\x98\xa8x\xfe"r\xb5K\x98\xb1N\\\x99\x9e\xf3\xe5'
p182
sS'format'
p183
I1
s.